; Function Attrs: nounwind sspstrong uwtable
define internal void @uhci_class_init(ptr noundef %klass, ptr readnone captures(none) %data) #0 {
entry:
  %call.i = tail call ptr @object_class_dynamic_cast_assert(ptr noundef %klass, ptr noundef nonnull @.str.13, ptr noundef nonnull @.str.14, i32 noundef 77, ptr noundef nonnull @__func__.DEVICE_CLASS) #11
  %call.i4 = tail call ptr @object_class_dynamic_cast_assert(ptr noundef %klass, ptr noundef nonnull @.str.69, ptr noundef nonnull @.str.70, i32 noundef 10, ptr noundef nonnull @__func__.PCI_DEVICE_CLASS) #11
  %class_id = getelementptr inbounds nuw i8, ptr %call.i4, i64 214
  store i16 3075, ptr %class_id, align 2
  %vmsd = getelementptr inbounds nuw i8, ptr %call.i, i64 160
  store ptr @vmstate_uhci, ptr %vmsd, align 8
  %reset = getelementptr inbounds nuw i8, ptr %call.i, i64 136
  store ptr @uhci_reset, ptr %reset, align 8
  %categories = getelementptr inbounds nuw i8, ptr %call.i, i64 96
  %0 = load i64, ptr %categories, align 8
  %or.i = or i64 %0, 2
  store i64 %or.i, ptr %categories, align 8
  ret void
}